; Function Attrs: nounwind uwtable
define ptr @l_Lean_ParserCompiler_CombinatorAttribute_getDeclFor_x3f(ptr noundef readonly captures(none) %0, ptr noundef %1, ptr noundef %2) local_unnamed_addr #0 {
  %4 = getelementptr inbounds nuw i8, ptr %0, i64 16
  %5 = load ptr, ptr %4, align 8, !tbaa !4
  %6 = getelementptr inbounds nuw i8, ptr %5, i64 8
  %7 = load ptr, ptr %6, align 8, !tbaa !4
  %8 = getelementptr i8, ptr %7, i64 32
  %.val = load i8, ptr %8, align 1, !tbaa !16
  %9 = tail call ptr @l_Lean_SimplePersistentEnvExtension_getState___rarg(ptr noundef nonnull inttoptr (i64 1 to ptr), ptr noundef %5, ptr noundef %1, i8 noundef zeroext %.val) #6
  %10 = tail call ptr @l_Lean_RBNode_find___at_Lean_NameMap_find_x3f___spec__1___rarg(ptr noundef %9, ptr noundef %2) #6
  %11 = ptrtoint ptr %9 to i64
  %12 = and i64 %11, 1
  %.not = icmp eq i64 %12, 0
  br i1 %.not, label %13, label %lean_dec.exit

13:                                               ; preds = %3
  %14 = load i32, ptr %9, align 4, !tbaa !8
  %15 = icmp sgt i32 %14, 1
  br i1 %15, label %16, label %18, !prof !11

16:                                               ; preds = %13
  %17 = add nsw i32 %14, -1
  store i32 %17, ptr %9, align 4, !tbaa !8
  br label %lean_dec.exit

18:                                               ; preds = %13
  %.not.i = icmp eq i32 %14, 0
  br i1 %.not.i, label %lean_dec.exit, label %19

19:                                               ; preds = %18
  tail call void @lean_dec_ref_cold(ptr noundef nonnull %9) #6
  br label %lean_dec.exit

lean_dec.exit:                                    ; preds = %19, %18, %16, %3
  ret ptr %10
}